target datalayout = "e-m:e-p270:32:32-p271:32:32-p272:64:64-i64:64-i128:128-f80:128-n8:16:32:64-S128"
target triple = "x86_64-pc-linux-gnu"

%struct.anon = type { [4 x ptr], [4 x ptr], i32, i32, i32, i32, i32, i32, i32, i32, i32, i32, [3 x i32], [3 x i32], [20 x i32], [20 x i32], [2 x i32], [2 x i32], [6 x [6 x double]], [6 x double], [6 x double], [6 x double], [6 x double], double, double, double, [2400 x double], [2400 x double], ptr, ptr, ptr, ptr, ptr, i32 }

; Function Attrs: nounwind uwtable
define internal i32 @PSolve(double noundef %0, ptr noundef %1, ptr noundef %2, ptr noundef %3, ptr noundef %4, double noundef %5, double noundef %6, i32 noundef %7, ptr noundef %8) #0 {
  %10 = alloca double, align 8
  %11 = alloca ptr, align 8
  %12 = alloca ptr, align 8
  %13 = alloca ptr, align 8
  %14 = alloca ptr, align 8
  %15 = alloca double, align 8
  %16 = alloca double, align 8
  %17 = alloca i32, align 4
  %18 = alloca ptr, align 8
  %19 = alloca ptr, align 8
  %20 = alloca ptr, align 8
  %21 = alloca i32, align 4
  %22 = alloca i32, align 4
  %23 = alloca i32, align 4
  %24 = alloca i32, align 4
  %25 = alloca i32, align 4
  %26 = alloca i32, align 4
  %27 = alloca ptr, align 8
  %28 = alloca ptr, align 8
  %29 = alloca i32, align 4
  %30 = alloca i32, align 4
  %31 = alloca i32, align 4
  %32 = alloca i32, align 4
  %33 = alloca ptr, align 8
  store double %0, ptr %10, align 8, !tbaa !11
  store ptr %1, ptr %11, align 8, !tbaa !13
  store ptr %2, ptr %12, align 8, !tbaa !13
  store ptr %3, ptr %13, align 8, !tbaa !13
  store ptr %4, ptr %14, align 8, !tbaa !13
  store double %5, ptr %15, align 8, !tbaa !11
  store double %6, ptr %16, align 8, !tbaa !11
  store i32 %7, ptr %17, align 4, !tbaa !4
  store ptr %8, ptr %18, align 8, !tbaa !15
  call void @llvm.lifetime.start.p0(i64 8, ptr %19) #6
  call void @llvm.lifetime.start.p0(i64 8, ptr %20) #6
  call void @llvm.lifetime.start.p0(i64 4, ptr %21) #6
  call void @llvm.lifetime.start.p0(i64 4, ptr %22) #6
  call void @llvm.lifetime.start.p0(i64 4, ptr %23) #6
  call void @llvm.lifetime.start.p0(i64 4, ptr %24) #6
  call void @llvm.lifetime.start.p0(i64 4, ptr %25) #6
  call void @llvm.lifetime.start.p0(i64 4, ptr %26) #6
  call void @llvm.lifetime.start.p0(i64 8, ptr %27) #6
  call void @llvm.lifetime.start.p0(i64 8, ptr %28) #6
  call void @llvm.lifetime.start.p0(i64 4, ptr %29) #6
  call void @llvm.lifetime.start.p0(i64 4, ptr %30) #6
  call void @llvm.lifetime.start.p0(i64 4, ptr %31) #6
  call void @llvm.lifetime.start.p0(i64 4, ptr %32) #6
  call void @llvm.lifetime.start.p0(i64 8, ptr %33) #6
  %34 = load ptr, ptr %18, align 8, !tbaa !15
  store ptr %34, ptr %33, align 8, !tbaa !15
  %35 = load ptr, ptr %13, align 8, !tbaa !13
  %36 = load ptr, ptr %14, align 8, !tbaa !13
  call void @N_VScale(double noundef 1.000000e+00, ptr noundef %35, ptr noundef %36)
  %37 = load double, ptr %15, align 8, !tbaa !11
  %38 = load ptr, ptr %14, align 8, !tbaa !13
  %39 = load ptr, ptr %33, align 8, !tbaa !15
  %40 = getelementptr inbounds nuw %struct.anon, ptr %39, i32 0, i32 29
  %41 = load ptr, ptr %40, align 8, !tbaa !36
  %42 = load ptr, ptr %33, align 8, !tbaa !15
  call void @GSIter(double noundef %37, ptr noundef %38, ptr noundef %41, ptr noundef %42)
  %43 = load ptr, ptr %33, align 8, !tbaa !15
  %44 = getelementptr inbounds nuw %struct.anon, ptr %43, i32 0, i32 0
  %45 = getelementptr inbounds [4 x ptr], ptr %44, i64 0, i64 0
  store ptr %45, ptr %19, align 8, !tbaa !54
  %46 = load ptr, ptr %33, align 8, !tbaa !15
  %47 = getelementptr inbounds nuw %struct.anon, ptr %46, i32 0, i32 1
  %48 = getelementptr inbounds [4 x ptr], ptr %47, i64 0, i64 0
  store ptr %48, ptr %20, align 8, !tbaa !56
  %49 = load ptr, ptr %33, align 8, !tbaa !15
  %50 = getelementptr inbounds nuw %struct.anon, ptr %49, i32 0, i32 6
  %51 = load i32, ptr %50, align 8, !tbaa !47
  store i32 %51, ptr %29, align 4, !tbaa !4
  %52 = load ptr, ptr %33, align 8, !tbaa !15
  %53 = getelementptr inbounds nuw %struct.anon, ptr %52, i32 0, i32 7
  %54 = load i32, ptr %53, align 4, !tbaa !48
  store i32 %54, ptr %30, align 4, !tbaa !4
  %55 = load ptr, ptr %33, align 8, !tbaa !15
  %56 = getelementptr inbounds nuw %struct.anon, ptr %55, i32 0, i32 9
  %57 = load i32, ptr %56, align 4, !tbaa !52
  store i32 %57, ptr %31, align 4, !tbaa !4
  %58 = load ptr, ptr %33, align 8, !tbaa !15
  %59 = getelementptr inbounds nuw %struct.anon, ptr %58, i32 0, i32 4
  %60 = load i32, ptr %59, align 8, !tbaa !45
  store i32 %60, ptr %32, align 4, !tbaa !4
  %61 = load ptr, ptr %33, align 8, !tbaa !15
  %62 = getelementptr inbounds nuw %struct.anon, ptr %61, i32 0, i32 14
  %63 = getelementptr inbounds [20 x i32], ptr %62, i64 0, i64 0
  store ptr %63, ptr %27, align 8, !tbaa !27
  %64 = load ptr, ptr %33, align 8, !tbaa !15
  %65 = getelementptr inbounds nuw %struct.anon, ptr %64, i32 0, i32 15
  %66 = getelementptr inbounds [20 x i32], ptr %65, i64 0, i64 0
  store ptr %66, ptr %28, align 8, !tbaa !27
  store i32 0, ptr %25, align 4, !tbaa !4
  store i32 0, ptr %22, align 4, !tbaa !4
  br label %67

67:                                               ; preds = %116, %9
  %68 = load i32, ptr %22, align 4, !tbaa !4
  %69 = load i32, ptr %30, align 4, !tbaa !4
  %70 = icmp slt i32 %68, %69
  br i1 %70, label %71, label %119

71:                                               ; preds = %67
  %72 = load ptr, ptr %28, align 8, !tbaa !27
  %73 = load i32, ptr %22, align 4, !tbaa !4
  %74 = sext i32 %73 to i64
  %75 = getelementptr inbounds i32, ptr %72, i64 %74
  %76 = load i32, ptr %75, align 4, !tbaa !4
  store i32 %76, ptr %24, align 4, !tbaa !4
  store i32 0, ptr %21, align 4, !tbaa !4
  br label %77

77:                                               ; preds = %112, %71
  %78 = load i32, ptr %21, align 4, !tbaa !4
  %79 = load i32, ptr %29, align 4, !tbaa !4
  %80 = icmp slt i32 %78, %79
  br i1 %80, label %81, label %115

81:                                               ; preds = %77
  %82 = load ptr, ptr %27, align 8, !tbaa !27
  %83 = load i32, ptr %21, align 4, !tbaa !4
  %84 = sext i32 %83 to i64
  %85 = getelementptr inbounds i32, ptr %82, i64 %84
  %86 = load i32, ptr %85, align 4, !tbaa !4
  store i32 %86, ptr %23, align 4, !tbaa !4
  %87 = load i32, ptr %23, align 4, !tbaa !4
  %88 = load i32, ptr %24, align 4, !tbaa !4
  %89 = load i32, ptr %31, align 4, !tbaa !4
  %90 = mul nsw i32 %88, %89
  %91 = add nsw i32 %87, %90
  store i32 %91, ptr %26, align 4, !tbaa !4
  %92 = load ptr, ptr %19, align 8, !tbaa !54
  %93 = load i32, ptr %26, align 4, !tbaa !4
  %94 = sext i32 %93 to i64
  %95 = getelementptr inbounds ptr, ptr %92, i64 %94
  %96 = load ptr, ptr %95, align 8, !tbaa !31
  %97 = load i32, ptr %32, align 4, !tbaa !4
  %98 = sext i32 %97 to i64
  %99 = load ptr, ptr %20, align 8, !tbaa !56
  %100 = load i32, ptr %26, align 4, !tbaa !4
  %101 = sext i32 %100 to i64
  %102 = getelementptr inbounds ptr, ptr %99, i64 %101
  %103 = load ptr, ptr %102, align 8, !tbaa !33
  %104 = load ptr, ptr %14, align 8, !tbaa !13
  %105 = call ptr @N_VGetArrayPointer(ptr noundef %104)
  %106 = load i32, ptr %25, align 4, !tbaa !4
  %107 = sext i32 %106 to i64
  %108 = getelementptr inbounds double, ptr %105, i64 %107
  call void @SUNDlsMat_denseGETRS(ptr noundef %96, i64 noundef %98, ptr noundef %103, ptr noundef %108)
  %109 = load i32, ptr %32, align 4, !tbaa !4
  %110 = load i32, ptr %25, align 4, !tbaa !4
  %111 = add nsw i32 %110, %109
  store i32 %111, ptr %25, align 4, !tbaa !4
  br label %112

112:                                              ; preds = %81
  %113 = load i32, ptr %21, align 4, !tbaa !4
  %114 = add nsw i32 %113, 1
  store i32 %114, ptr %21, align 4, !tbaa !4
  br label %77

115:                                              ; preds = %77
  br label %116

116:                                              ; preds = %115
  %117 = load i32, ptr %22, align 4, !tbaa !4
  %118 = add nsw i32 %117, 1
  store i32 %118, ptr %22, align 4, !tbaa !4
  br label %67

119:                                              ; preds = %67
  %120 = load ptr, ptr %13, align 8, !tbaa !13
  %121 = call ptr @N_VGetArrayPointer(ptr noundef %120)
  %122 = getelementptr inbounds double, ptr %121, i64 2400
  %123 = load double, ptr %122, align 8, !tbaa !11
  %124 = load double, ptr %15, align 8, !tbaa !11
  %125 = load ptr, ptr %14, align 8, !tbaa !13
  %126 = load ptr, ptr %33, align 8, !tbaa !15
  %127 = call double @doubleIntgr(ptr noundef %125, i32 noundef 6, ptr noundef %126)
  %128 = call double @llvm.fmuladd.f64(double %124, double %127, double %123)
  %129 = load ptr, ptr %14, align 8, !tbaa !13
  %130 = call ptr @N_VGetArrayPointer(ptr noundef %129)
  %131 = getelementptr inbounds double, ptr %130, i64 2400
  store double %128, ptr %131, align 8, !tbaa !11
  call void @llvm.lifetime.end.p0(i64 8, ptr %33) #6
  call void @llvm.lifetime.end.p0(i64 4, ptr %32) #6
  call void @llvm.lifetime.end.p0(i64 4, ptr %31) #6
  call void @llvm.lifetime.end.p0(i64 4, ptr %30) #6
  call void @llvm.lifetime.end.p0(i64 4, ptr %29) #6
  call void @llvm.lifetime.end.p0(i64 8, ptr %28) #6
  call void @llvm.lifetime.end.p0(i64 8, ptr %27) #6
  call void @llvm.lifetime.end.p0(i64 4, ptr %26) #6
  call void @llvm.lifetime.end.p0(i64 4, ptr %25) #6
  call void @llvm.lifetime.end.p0(i64 4, ptr %24) #6
  call void @llvm.lifetime.end.p0(i64 4, ptr %23) #6
  call void @llvm.lifetime.end.p0(i64 4, ptr %22) #6
  call void @llvm.lifetime.end.p0(i64 4, ptr %21) #6
  call void @llvm.lifetime.end.p0(i64 8, ptr %20) #6
  call void @llvm.lifetime.end.p0(i64 8, ptr %19) #6
  ret i32 0
}