; Function Attrs: nounwind uwtable
define internal noundef i32 @PSolve(double %0, ptr readnone captures(none) %1, ptr readnone captures(none) %2, ptr noundef %3, ptr noundef %4, double noundef %5, double %6, i32 %7, ptr noundef readonly captures(none) %8) #0 {
  tail call void @N_VScale(double noundef 1.000000e+00, ptr noundef %3, ptr noundef %4) #9
  %10 = getelementptr inbounds nuw i8, ptr %8, i64 39216
  %11 = load ptr, ptr %10, align 8, !tbaa !20
  tail call fastcc void @GSIter(double noundef %5, ptr noundef %4, ptr noundef %11, ptr noundef %8)
  %12 = getelementptr inbounds nuw i8, ptr %8, i64 32
  %13 = getelementptr inbounds nuw i8, ptr %8, i64 80
  %14 = load i32, ptr %13, align 8, !tbaa !30
  %15 = getelementptr inbounds nuw i8, ptr %8, i64 84
  %16 = load i32, ptr %15, align 4, !tbaa !31
  %17 = getelementptr inbounds nuw i8, ptr %8, i64 92
  %18 = load i32, ptr %17, align 4, !tbaa !35
  %19 = getelementptr inbounds nuw i8, ptr %8, i64 128
  %20 = getelementptr inbounds nuw i8, ptr %8, i64 208
  %21 = icmp sgt i32 %16, 0
  br i1 %21, label %.lr.ph48, label %._crit_edge49

.lr.ph48:                                         ; preds = %9
  %22 = getelementptr inbounds nuw i8, ptr %8, i64 72
  %23 = load i32, ptr %22, align 8, !tbaa !28
  %24 = icmp sgt i32 %14, 0
  %25 = sext i32 %23 to i64
  br i1 %24, label %.lr.ph.us.preheader, label %._crit_edge49

.lr.ph.us.preheader:                              ; preds = %.lr.ph48
  %wide.trip.count59 = zext nneg i32 %16 to i64
  %wide.trip.count = zext nneg i32 %14 to i64
  br label %.lr.ph.us

.lr.ph.us:                                        ; preds = %.lr.ph.us.preheader, %._crit_edge.us
  %indvars.iv56 = phi i64 [ 0, %.lr.ph.us.preheader ], [ %indvars.iv.next57, %._crit_edge.us ]
  %.04245.us = phi i64 [ 0, %.lr.ph.us.preheader ], [ %indvars.iv.next52, %._crit_edge.us ]
  %26 = getelementptr inbounds nuw i32, ptr %20, i64 %indvars.iv56
  %27 = load i32, ptr %26, align 4, !tbaa !37
  %28 = mul nsw i32 %27, %18
  %sext = shl i64 %.04245.us, 32
  %29 = ashr exact i64 %sext, 32
  br label %30

30:                                               ; preds = %.lr.ph.us, %30
  %indvars.iv51 = phi i64 [ %29, %.lr.ph.us ], [ %indvars.iv.next52, %30 ]
  %indvars.iv = phi i64 [ 0, %.lr.ph.us ], [ %indvars.iv.next, %30 ]
  %31 = getelementptr inbounds nuw i32, ptr %19, i64 %indvars.iv
  %32 = load i32, ptr %31, align 4, !tbaa !37
  %33 = add nsw i32 %32, %28
  %34 = sext i32 %33 to i64
  %35 = getelementptr inbounds ptr, ptr %8, i64 %34
  %36 = load ptr, ptr %35, align 8, !tbaa !9
  %37 = getelementptr inbounds ptr, ptr %12, i64 %34
  %38 = load ptr, ptr %37, align 8, !tbaa !11
  %39 = tail call ptr @N_VGetArrayPointer(ptr noundef %4) #9
  %40 = getelementptr inbounds double, ptr %39, i64 %indvars.iv51
  tail call void @SUNDlsMat_denseGETRS(ptr noundef %36, i64 noundef %25, ptr noundef %38, ptr noundef %40) #9
  %indvars.iv.next52 = add nsw i64 %indvars.iv51, %25
  %indvars.iv.next = add nuw nsw i64 %indvars.iv, 1
  %exitcond.not = icmp eq i64 %indvars.iv.next, %wide.trip.count
  br i1 %exitcond.not, label %._crit_edge.us, label %30

._crit_edge.us:                                   ; preds = %30
  %indvars.iv.next57 = add nuw nsw i64 %indvars.iv56, 1
  %exitcond60.not = icmp eq i64 %indvars.iv.next57, %wide.trip.count59
  br i1 %exitcond60.not, label %._crit_edge49, label %.lr.ph.us

._crit_edge49:                                    ; preds = %._crit_edge.us, %.lr.ph48, %9
  %41 = tail call ptr @N_VGetArrayPointer(ptr noundef %3) #9
  %42 = getelementptr inbounds nuw i8, ptr %41, i64 19200
  %43 = load double, ptr %42, align 8, !tbaa !24
  %44 = tail call fastcc double @doubleIntgr(ptr noundef %4, ptr noundef nonnull %8)
  %45 = tail call double @llvm.fmuladd.f64(double %5, double %44, double %43)
  %46 = tail call ptr @N_VGetArrayPointer(ptr noundef %4) #9
  %47 = getelementptr inbounds nuw i8, ptr %46, i64 19200
  store double %45, ptr %47, align 8, !tbaa !24
  ret i32 0
}